target datalayout = "e-m:e-p270:32:32-p271:32:32-p272:64:64-i64:64-i128:128-f80:128-n8:16:32:64-S128"
target triple = "x86_64-pc-linux-gnu"

@crc32_impl = internal global ptr @dispatch_crc32, align 8

; Function Attrs: nounwind uwtable
define i32 @libdeflate_crc32(i32 noundef %0, ptr noundef %1, i64 noundef %2) #0 {
  %4 = alloca i32, align 4
  %5 = alloca i32, align 4
  %6 = alloca ptr, align 8
  %7 = alloca i64, align 8
  store i32 %0, ptr %5, align 4, !tbaa !4
  store ptr %1, ptr %6, align 8, !tbaa !8
  store i64 %2, ptr %7, align 8, !tbaa !10
  %8 = load ptr, ptr %6, align 8, !tbaa !8
  %9 = icmp eq ptr %8, null
  br i1 %9, label %10, label %11

10:                                               ; preds = %3
  store i32 0, ptr %4, align 4
  br label %19

11:                                               ; preds = %3
  %12 = load volatile ptr, ptr @crc32_impl, align 8, !tbaa !8
  %13 = load i32, ptr %5, align 4, !tbaa !4
  %14 = xor i32 %13, -1
  %15 = load ptr, ptr %6, align 8, !tbaa !8
  %16 = load i64, ptr %7, align 8, !tbaa !10
  %17 = call i32 %12(i32 noundef %14, ptr noundef %15, i64 noundef %16)
  %18 = xor i32 %17, -1
  store i32 %18, ptr %4, align 4
  br label %19

19:                                               ; preds = %11, %10
  %20 = load i32, ptr %4, align 4
  ret i32 %20
}