; Function Attrs: nounwind uwtable
define i32 @libdeflate_crc32(i32 noundef %0, ptr noundef %1, i64 noundef %2) local_unnamed_addr #0 {
  %4 = icmp eq ptr %1, null
  br i1 %4, label %10, label %5

5:                                                ; preds = %3
  %6 = load volatile ptr, ptr @crc32_impl, align 8, !tbaa !4
  %7 = xor i32 %0, -1
  %8 = tail call i32 %6(i32 noundef %7, ptr noundef nonnull %1, i64 noundef %2) #10
  %9 = xor i32 %8, -1
  br label %10

10:                                               ; preds = %3, %5
  %.0 = phi i32 [ %9, %5 ], [ 0, %3 ]
  ret i32 %.0
}